; Function Attrs: mustprogress nofree norecurse nosync nounwind willreturn memory(argmem: readwrite) uwtable
define internal nonnull ptr @Unroll3BytesSwap(ptr nocapture readnone %0, ptr nocapture noundef writeonly %1, ptr noundef readonly %2, i32 %3) #3 {
  %5 = load i8, ptr %2, align 1
  %6 = zext i8 %5 to i16
  %7 = shl nuw i16 %6, 8
  %8 = or disjoint i16 %7, %6
  %9 = getelementptr inbounds i8, ptr %1, i64 4
  store i16 %8, ptr %9, align 2
  %10 = getelementptr inbounds i8, ptr %2, i64 1
  %11 = load i8, ptr %10, align 1
  %12 = zext i8 %11 to i16
  %13 = shl nuw i16 %12, 8
  %14 = or disjoint i16 %13, %12
  %15 = getelementptr inbounds i8, ptr %1, i64 2
  store i16 %14, ptr %15, align 2
  %16 = getelementptr inbounds i8, ptr %2, i64 2
  %17 = load i8, ptr %16, align 1
  %18 = zext i8 %17 to i16
  %19 = shl nuw i16 %18, 8
  %20 = or disjoint i16 %19, %18
  store i16 %20, ptr %1, align 2
  %21 = getelementptr inbounds i8, ptr %2, i64 3
  ret ptr %21
}